; Function Attrs: mustprogress uwtable
define noundef zeroext i8 @_ZNK5folly14StrandExecutor16getNumPrioritiesEv(ptr noundef nonnull readonly align 8 captures(none) dereferenceable(40) %0) unnamed_addr #4 align 2 {
  %2 = getelementptr inbounds nuw i8, ptr %0, i64 16
  %3 = load i64, ptr %2, align 8, !tbaa !22
  %4 = and i64 %3, -4
  %5 = inttoptr i64 %4 to ptr
  %6 = load ptr, ptr %5, align 8, !tbaa !17
  %7 = getelementptr inbounds nuw i8, ptr %6, i64 32
  %8 = load ptr, ptr %7, align 8
  %9 = tail call noundef zeroext i8 %8(ptr noundef nonnull align 8 dereferenceable(8) %5)
  ret i8 %9
}